Certificate Request:
    Data:
        Version: 0 (0x0)
        Subject: C=FR, ST=IDF, L=Paris, O=Local NODE-OPCUA Certificate Authority, CN=NodeOPCUA-CA
        Subject Public Key Info:
            Public Key Algorithm: rsaEncryption
                Public-Key: (2048 bit)
                Modulus:
                    00:bc:64:9a:22:1a:88:e9:98:7f:a8:7c:8e:f4:dd:
                    60:8a:c6:b4:b8:6a:80:d7:a8:24:4c:a7:4b:c9:e3:
                    b1:17:c9:17:76:1c:8d:c3:f8:c5:68:e8:65:7f:75:
                    63:e0:2e:52:6a:3a:6a:d3:14:0a:f2:25:a6:ac:1e:
                    fd:2f:b4:c1:c6:e3:4c:b2:bc:f5:91:fd:0e:8b:b8:
                    77:dc:af:b8:f3:40:7f:8e:c3:bc:9a:75:81:5b:75:
                    59:d0:5b:ee:9b:9d:cf:fa:64:0f:52:6c:d4:4d:b7:
                    61:50:5b:57:cd:20:df:04:e8:37:96:81:9a:bd:75:
                    e2:69:50:00:45:b9:86:61:6e:7a:3e:03:ab:8f:c2:
                    e5:c7:5a:6c:20:5c:f2:df:bf:27:68:b0:98:7a:16:
                    33:13:33:4b:84:c6:d2:db:f7:96:dc:1f:ae:e9:e2:
                    52:b8:84:53:f7:b7:f0:ad:02:f1:86:d9:1a:0e:7d:
                    7f:7e:32:34:4d:b1:49:4e:34:42:75:bb:d4:0a:9f:
                    a0:2b:87:9c:9f:20:28:4a:76:0d:5a:4b:46:f4:1a:
                    41:7d:09:8d:91:e1:af:33:c9:0e:88:21:58:80:65:
                    d2:b6:23:4e:89:05:56:aa:8a:15:06:a5:a5:d0:86:
                    62:e4:52:c3:a5:ed:27:7d:82:5c:73:d0:31:f6:ce:
                    a6:b7
                Exponent: 65537 (0x10001)
        Attributes:
        Requested Extensions:
            X509v3 Basic Constraints: critical
                CA:FALSE
            X509v3 Key Usage: 
                Digital Signature, Non Repudiation, Key Encipherment, Data Encipherment, Key Agreement
            X509v3 Extended Key Usage: critical
                TLS Web Server Authentication, TLS Web Client Authentication
            X509v3 Subject Alternative Name: 
                URI:undefined
            Netscape Comment: 
                CA Generated by Node-OPCUA Certificate utility using openssl
    Signature Algorithm: sha256WithRSAEncryption
         b8:f9:00:de:84:cc:97:cb:80:75:2d:79:91:d9:bc:18:4e:c3:
         d7:35:dc:fe:24:8c:a0:dd:9d:4b:7d:13:67:64:94:96:22:ab:
         c4:76:5d:73:59:51:22:ec:61:54:37:ae:02:b0:4e:c0:e1:05:
         25:e3:e5:c0:e7:ff:79:9a:2c:b2:71:a9:2a:26:7f:e3:14:53:
         40:f5:bd:d8:35:35:f3:af:75:05:1c:d3:b3:b9:c3:ea:16:ab:
         7b:ab:ec:92:24:a7:08:df:62:a1:4c:66:f3:1f:02:e7:04:15:
         02:d3:6f:a1:26:c8:b6:74:6d:9e:c9:bb:a8:ef:4f:0a:86:84:
         9e:fe:5c:33:51:09:ff:27:78:18:f1:b5:a8:d3:bf:d6:53:be:
         40:ee:9e:b7:7a:1a:8e:a4:23:ce:6f:19:db:1b:57:7b:75:fa:
         d4:73:c1:23:f3:c6:4e:b5:96:7b:76:55:1a:3f:91:3d:8b:20:
         96:42:b2:dd:25:17:af:c1:e7:8a:48:72:11:d7:64:04:95:7b:
         83:fb:d9:75:88:56:7a:ee:aa:9a:30:50:19:60:81:23:68:dd:
         f1:31:dc:a9:88:5d:27:79:7a:47:cd:7b:79:bf:58:45:83:de:
         da:d6:ae:6f:50:63:f9:27:9b:ef:33:c8:59:ea:31:65:56:c1:
         1b:7a:eb:2b
-----BEGIN CERTIFICATE REQUEST-----
MIIDbTCCAlUCAQAwczELMAkGA1UEBhMCRlIxDDAKBgNVBAgTA0lERjEOMAwGA1UE
BxMFUGFyaXMxLzAtBgNVBAoTJkxvY2FsIE5PREUtT1BDVUEgQ2VydGlmaWNhdGUg
QXV0aG9yaXR5MRUwEwYDVQQDEwxOb2RlT1BDVUEtQ0EwggEiMA0GCSqGSIb3DQEB
AQUAA4IBDwAwggEKAoIBAQC8ZJoiGojpmH+ofI703WCKxrS4aoDXqCRMp0vJ47EX
yRd2HI3D+MVo6GV/dWPgLlJqOmrTFAryJaasHv0vtMHG40yyvPWR/Q6LuHfcr7jz
QH+Ow7yadYFbdVnQW+6bnc/6ZA9SbNRNt2FQW1fNIN8E6DeWgZq9deJpUABFuYZh
bno+A6uPwuXHWmwgXPLfvydosJh6FjMTM0uExtLb95bcH67p4lK4hFP3t/CtAvGG
2RoOfX9+MjRNsUlONEJ1u9QKn6Arh5yfIChKdg1aS0b0GkF9CY2R4a8zyQ6IIViA
ZdK2I06JBVaqihUGpaXQhmLkUsOl7Sd9glxz0DH2zqa3AgMBAAGggbQwgbEGCSqG
SIb3DQEJDjGBozCBoDAMBgNVHRMBAf8EAjAAMAsGA1UdDwQEAwID+DAgBgNVHSUB
Af8EFjAUBggrBgEFBQcDAQYIKwYBBQUHAwIwFAYDVR0RBA0wC4YJdW5kZWZpbmVk
MEsGCWCGSAGG+EIBDQQ+FjxDQSBHZW5lcmF0ZWQgYnkgTm9kZS1PUENVQSBDZXJ0
aWZpY2F0ZSB1dGlsaXR5IHVzaW5nIG9wZW5zc2wwDQYJKoZIhvcNAQELBQADggEB
ALj5AN6EzJfLgHUteZHZvBhOw9c13P4kjKDdnUt9E2dklJYiq8R2XXNZUSLsYVQ3
rgKwTsDhBSXj5cDn/3maLLJxqSomf+MUU0D1vdg1NfOvdQUc07O5w+oWq3ur7JIk
pwjfYqFMZvMfAucEFQLTb6EmyLZ0bZ7Ju6jvTwqGhJ7+XDNRCf8neBjxtajTv9ZT
vkDunrd6Go6kI85vGdsbV3t1+tRzwSPzxk61lnt2VRo/kT2LIJZCst0lF6/B54pI
chHXZASVe4P72XWIVnruqpowUBlggSNo3fEx3KmIXSd5ekfNe3m/WEWD3trWrm9Q
Y/knm+8zyFnqMWVWwRt66ys=
-----END CERTIFICATE REQUEST-----
