Certificate:
    Data:
        Version: 3 (0x2)
        Serial Number: 4096 (0x1000)
    Signature Algorithm: sha256WithRSAEncryption
        Issuer: C=FR, ST=IDF, L=Paris, O=Local NODE-OPCUA Certificate Authority, CN=NodeOPCUA-CA
        Validity
            Not Before: Aug 18 11:32:07 2021 GMT
            Not After : Aug 14 11:32:07 2036 GMT
        Subject: C=FR, ST=IDF, L=Paris, O=NodeOPCUA, OU=NodeOPCUA, CN=NodeOPCUA-TEST
        Subject Public Key Info:
            Public Key Algorithm: rsaEncryption
                Public-Key: (2048 bit)
                Modulus:
                    00:c2:68:4d:e9:b5:d8:17:7d:dd:ef:9b:9e:90:0f:
                    cd:0e:51:5a:85:27:8c:2d:30:86:b4:12:bc:1e:7f:
                    24:4f:4f:d9:98:85:2d:46:08:8e:51:f4:e6:41:84:
                    19:a7:3c:9d:2e:5e:2c:51:88:b8:8a:4f:18:2d:c6:
                    66:1b:37:34:67:85:8e:b8:1e:b8:cb:3b:37:6f:7c:
                    a3:64:0e:fe:ac:61:2f:84:8d:d7:5a:a1:7c:8d:af:
                    05:1d:c9:3a:4b:99:03:ec:41:00:82:f0:32:f4:fe:
                    be:71:81:89:7c:ab:8c:2f:b5:87:28:93:23:b9:93:
                    97:c8:d3:a2:ca:be:2a:3e:89:b8:57:ac:04:c6:fb:
                    17:db:94:ac:e1:a6:f3:e5:9f:0a:1d:52:c2:66:f9:
                    93:db:f2:52:b8:86:b5:2f:bc:89:91:0f:8d:0f:02:
                    30:27:04:a2:ec:96:13:3a:6e:32:a7:44:7b:b9:d5:
                    22:ae:b3:a6:ad:af:e4:90:02:c2:38:73:47:09:37:
                    2e:d2:60:ed:4c:a5:7a:e0:9e:8c:32:0f:c6:cd:b5:
                    ee:34:af:9b:3b:e5:af:2c:ea:37:4f:3a:76:21:65:
                    cc:be:6e:e5:29:96:a1:22:47:28:b0:10:dc:d7:2a:
                    6b:98:ff:20:7c:e0:79:e1:87:b1:f3:df:1e:eb:38:
                    79:59
                Exponent: 65537 (0x10001)
        X509v3 extensions:
            X509v3 Basic Constraints: critical
                CA:FALSE
            X509v3 Subject Key Identifier: 
                46:1A:FA:20:EA:83:BA:A4:10:4E:37:5E:D3:69:BE:83:66:33:57:76
            X509v3 Authority Key Identifier: 
                keyid:01:56:CC:A9:D3:F9:B6:84:B2:32:CF:F3:F1:B6:D6:F0:EB:D6:A7:64
                DirName:/C=FR/ST=IDF/L=Paris/O=Local NODE-OPCUA Certificate Authority/CN=NodeOPCUA-CA
                serial:B2:79:09:B2:E1:0C:F3:26

            X509v3 Subject Alternative Name: 
                URI:urn:WINDOWS-KIRHIJ4:Node-OPCUA-Server, DNS:WINDOWS-KIRHIJ4
            Netscape Comment: 
                OpenSSL Generated Certificate
            X509v3 Key Usage: critical
                Digital Signature, Non Repudiation, Key Encipherment, Data Encipherment, Key Agreement, Certificate Sign
            X509v3 Extended Key Usage: critical
                TLS Web Server Authentication, TLS Web Client Authentication
    Signature Algorithm: sha256WithRSAEncryption
         77:a1:2b:f3:78:ed:f4:a6:96:16:7a:cd:9c:28:87:e0:42:36:
         38:4f:40:b6:e9:dc:8b:80:61:33:4c:ce:2d:d8:34:44:81:d3:
         b2:16:51:3f:b5:a4:fa:04:79:92:1e:a0:f7:96:99:30:cb:8d:
         27:5e:c2:f9:7b:ed:5e:9c:2e:d9:76:cf:a5:92:82:a9:bb:b0:
         17:32:39:af:f2:ee:da:02:52:e0:16:ba:1d:b4:0c:7a:3e:86:
         a5:c1:23:7b:f3:dd:72:40:e5:a0:05:d3:8e:f4:0e:c0:66:fa:
         74:dc:23:be:db:c1:ff:d6:e7:60:3d:a9:32:1e:64:2e:dc:63:
         f5:fa:5d:7d:53:cd:96:72:af:c9:b0:c9:7b:10:eb:a2:a9:43:
         59:64:02:59:64:35:2d:c6:17:98:87:36:7f:c8:d7:8c:5b:fc:
         1d:ed:e0:35:47:56:ad:8d:30:9a:02:64:14:98:ac:5a:d9:5f:
         ae:79:38:0a:cf:56:d3:63:15:50:04:93:b6:ea:6c:4f:1c:32:
         0a:0e:39:36:87:37:f6:62:80:72:3b:3b:f3:9b:16:2a:34:ce:
         d2:6d:e6:1e:4d:5b:07:ad:eb:f8:30:fb:e8:b2:95:73:34:52:
         b7:23:1c:06:b5:16:30:2f:1d:53:2b:04:79:b0:2a:ea:34:1a:
         db:e5:52:b6
-----BEGIN CERTIFICATE-----
MIIE3TCCA8WgAwIBAgICEAAwDQYJKoZIhvcNAQELBQAwczELMAkGA1UEBhMCRlIx
DDAKBgNVBAgTA0lERjEOMAwGA1UEBxMFUGFyaXMxLzAtBgNVBAoTJkxvY2FsIE5P
REUtT1BDVUEgQ2VydGlmaWNhdGUgQXV0aG9yaXR5MRUwEwYDVQQDEwxOb2RlT1BD
VUEtQ0EwIhgPMjAyMTA4MTgxMTMyMDdaGA8yMDM2MDgxNDExMzIwN1owbDELMAkG
A1UEBhMCRlIxDDAKBgNVBAgMA0lERjEOMAwGA1UEBwwFUGFyaXMxEjAQBgNVBAoM
CU5vZGVPUENVQTESMBAGA1UECwwJTm9kZU9QQ1VBMRcwFQYDVQQDDA5Ob2RlT1BD
VUEtVEVTVDCCASIwDQYJKoZIhvcNAQEBBQADggEPADCCAQoCggEBAMJoTem12Bd9
3e+bnpAPzQ5RWoUnjC0whrQSvB5/JE9P2ZiFLUYIjlH05kGEGac8nS5eLFGIuIpP
GC3GZhs3NGeFjrgeuMs7N298o2QO/qxhL4SN11qhfI2vBR3JOkuZA+xBAILwMvT+
vnGBiXyrjC+1hyiTI7mTl8jTosq+Kj6JuFesBMb7F9uUrOGm8+WfCh1Swmb5k9vy
UriGtS+8iZEPjQ8CMCcEouyWEzpuMqdEe7nVIq6zpq2v5JACwjhzRwk3LtJg7Uyl
euCejDIPxs217jSvmzvlryzqN086diFlzL5u5SmWoSJHKLAQ3Ncqa5j/IHzgeeGH
sfPfHus4eVkCAwEAAaOCAXwwggF4MAwGA1UdEwEB/wQCMAAwHQYDVR0OBBYEFEYa
+iDqg7qkEE43XtNpvoNmM1d2MIGlBgNVHSMEgZ0wgZqAFAFWzKnT+baEsjLP8/G2
1vDr1qdkoXekdTBzMQswCQYDVQQGEwJGUjEMMAoGA1UECBMDSURGMQ4wDAYDVQQH
EwVQYXJpczEvMC0GA1UEChMmTG9jYWwgTk9ERS1PUENVQSBDZXJ0aWZpY2F0ZSBB
dXRob3JpdHkxFTATBgNVBAMTDE5vZGVPUENVQS1DQYIJALJ5CbLhDPMmMEEGA1Ud
EQQ6MDiGJXVybjpXSU5ET1dTLUtJUkhJSjQ6Tm9kZS1PUENVQS1TZXJ2ZXKCD1dJ
TkRPV1MtS0lSSElKNDAsBglghkgBhvhCAQ0EHxYdT3BlblNTTCBHZW5lcmF0ZWQg
Q2VydGlmaWNhdGUwDgYDVR0PAQH/BAQDAgL8MCAGA1UdJQEB/wQWMBQGCCsGAQUF
BwMBBggrBgEFBQcDAjANBgkqhkiG9w0BAQsFAAOCAQEAd6Er83jt9KaWFnrNnCiH
4EI2OE9Atunci4BhM0zOLdg0RIHTshZRP7Wk+gR5kh6g95aZMMuNJ17C+XvtXpwu
2XbPpZKCqbuwFzI5r/Lu2gJS4Ba6HbQMej6GpcEje/PdckDloAXTjvQOwGb6dNwj
vtvB/9bnYD2pMh5kLtxj9fpdfVPNlnKvybDJexDroqlDWWQCWWQ1LcYXmIc2f8jX
jFv8He3gNUdWrY0wmgJkFJisWtlfrnk4Cs9W02MVUASTtupsTxwyCg45Noc39mKA
cjs785sWKjTO0m3mHk1bB63r+DD76LKVczRStyMcBrUWMC8dUysEebAq6jQa2+VS
tg==
-----END CERTIFICATE-----
-----BEGIN CERTIFICATE-----
MIIE3TCCA8WgAwIBAgIJALJ5CbLhDPMmMA0GCSqGSIb3DQEBCwUAMHMxCzAJBgNV
BAYTAkZSMQwwCgYDVQQIEwNJREYxDjAMBgNVBAcTBVBhcmlzMS8wLQYDVQQKEyZM
b2NhbCBOT0RFLU9QQ1VBIENlcnRpZmljYXRlIEF1dGhvcml0eTEVMBMGA1UEAxMM
Tm9kZU9QQ1VBLUNBMB4XDTIxMDgxODExMzIwNFoXDTMxMDgxNjExMzIwNFowczEL
MAkGA1UEBhMCRlIxDDAKBgNVBAgTA0lERjEOMAwGA1UEBxMFUGFyaXMxLzAtBgNV
BAoTJkxvY2FsIE5PREUtT1BDVUEgQ2VydGlmaWNhdGUgQXV0aG9yaXR5MRUwEwYD
VQQDEwxOb2RlT1BDVUEtQ0EwggEiMA0GCSqGSIb3DQEBAQUAA4IBDwAwggEKAoIB
AQC8ZJoiGojpmH+ofI703WCKxrS4aoDXqCRMp0vJ47EXyRd2HI3D+MVo6GV/dWPg
LlJqOmrTFAryJaasHv0vtMHG40yyvPWR/Q6LuHfcr7jzQH+Ow7yadYFbdVnQW+6b
nc/6ZA9SbNRNt2FQW1fNIN8E6DeWgZq9deJpUABFuYZhbno+A6uPwuXHWmwgXPLf
vydosJh6FjMTM0uExtLb95bcH67p4lK4hFP3t/CtAvGG2RoOfX9+MjRNsUlONEJ1
u9QKn6Arh5yfIChKdg1aS0b0GkF9CY2R4a8zyQ6IIViAZdK2I06JBVaqihUGpaXQ
hmLkUsOl7Sd9glxz0DH2zqa3AgMBAAGjggFyMIIBbjAdBgNVHQ4EFgQUAVbMqdP5
toSyMs/z8bbW8OvWp2QwgaUGA1UdIwSBnTCBmoAUAVbMqdP5toSyMs/z8bbW8OvW
p2Shd6R1MHMxCzAJBgNVBAYTAkZSMQwwCgYDVQQIEwNJREYxDjAMBgNVBAcTBVBh
cmlzMS8wLQYDVQQKEyZMb2NhbCBOT0RFLU9QQ1VBIENlcnRpZmljYXRlIEF1dGhv
cml0eTEVMBMGA1UEAxMMTm9kZU9QQ1VBLUNBggkAsnkJsuEM8yYwDAYDVR0TBAUw
AwEB/zAOBgNVHQ8BAf8EBAMCAQYwVwYJYIZIAYb4QgENBEoWSENBIENlcnRpZmlj
YXRlIGdlbmVyYXRlZCBieSBOb2RlLU9QQ1VBIENlcnRpZmljYXRlIHV0aWxpdHkg
dXNpbmcgb3BlbnNzbDAuBgNVHR8EJzAlMCOgIaAfhh1odHRwOi8vbG9jYWxob3N0
Ojg5MDAvY3JsLnBlbTANBgkqhkiG9w0BAQsFAAOCAQEAb1jzw3F02KhnIHUNN9Ex
GBv688nnRlTojS9mmQ8m+Nr3mJIEUKt/NJzcYa+faZaZo5eONcXTjvRLv0XsuNsR
M9JPukiYp3nr/ervb6gaphxmJImPGYUHWkcfCH55+vYQu7eeJhGHFRxo+RZWCmf9
n9BMpl14nDzczJWsLYkjhAw9EsYqf2U55FM1woPZ3QlRfVAlYpZXTbp88Rb4QBaW
oa8r7oLG1iUD9OuY89yvUKw0sgUFRgAi1sj1fSNOyRISqxST0Dn8JRNKMZZdR1yu
IMe37LF3f973PXvu9V4TDbaDu9g+8r6fuHEmHY/d8TY1qUrkkKIz6B/npxXK0n08
Yw==
-----END CERTIFICATE-----
